target datalayout = "e-m:e-p270:32:32-p271:32:32-p272:64:64-i64:64-i128:128-f80:128-n8:16:32:64-S128"
target triple = "x86_64-pc-linux-gnu"

%struct.tok_state = type { ptr, ptr, ptr, i32, ptr, ptr, ptr, ptr, i32, ptr, i32, i32, [100 x i32], i32, i32, ptr, ptr, i32, i32, i32, i32, i32, [200 x i8], [200 x i32], [200 x i32], ptr, [100 x i32], i32, i32, ptr, i32, ptr, ptr, ptr, ptr, ptr, ptr, ptr, ptr, i32, i32, ptr, i32, [150 x %struct._tokenizer_mode], i32, i32, i32, i32 }
%struct._tokenizer_mode = type { i32, i32, i32, i8, i32, i32, ptr, ptr, i32, i64, i64, i64, i64, ptr, i32, i32 }

; Function Attrs: nounwind uwtable
define hidden i32 @_PyTokenizer_indenterror(ptr noundef %0) #0 {
  %2 = alloca ptr, align 8
  store ptr %0, ptr %2, align 8, !tbaa !4
  %3 = load ptr, ptr %2, align 8, !tbaa !4
  %4 = getelementptr inbounds nuw %struct.tok_state, ptr %3, i32 0, i32 8
  store i32 18, ptr %4, align 8, !tbaa !15
  %5 = load ptr, ptr %2, align 8, !tbaa !4
  %6 = getelementptr inbounds nuw %struct.tok_state, ptr %5, i32 0, i32 2
  %7 = load ptr, ptr %6, align 8, !tbaa !26
  %8 = load ptr, ptr %2, align 8, !tbaa !4
  %9 = getelementptr inbounds nuw %struct.tok_state, ptr %8, i32 0, i32 1
  store ptr %7, ptr %9, align 8, !tbaa !21
  ret i32 64
}